target datalayout = "e-m:e-p270:32:32-p271:32:32-p272:64:64-i64:64-i128:128-f80:128-n8:16:32:64-S128"
target triple = "x86_64-pc-linux-gnu"

%"class.icu_77::UnicodeSet" = type <{ %"class.icu_77::UnicodeFilter", ptr, i32, i32, i8, [7 x i8], ptr, ptr, i32, [4 x i8], ptr, i32, [4 x i8], ptr, ptr, [25 x i32], [4 x i8] }>
%"class.icu_77::UnicodeFilter" = type { %"class.icu_77::UnicodeFunctor", %"class.icu_77::UnicodeMatcher" }
%"class.icu_77::UnicodeFunctor" = type { %"class.icu_77::UObject" }
%"class.icu_77::UObject" = type { ptr }
%"class.icu_77::UnicodeMatcher" = type { ptr }

; Function Attrs: inlinehint mustprogress nounwind uwtable
define linkonce_odr noundef signext i8 @_ZNK6icu_7710UnicodeSet7isBogusEv(ptr noundef nonnull align 8 dereferenceable(200) %0) #2 comdat align 2 {
  %2 = alloca ptr, align 8
  store ptr %0, ptr %2, align 8, !tbaa !23
  %3 = load ptr, ptr %2, align 8
  %4 = getelementptr inbounds nuw %"class.icu_77::UnicodeSet", ptr %3, i32 0, i32 4
  %5 = load i8, ptr %4, align 8, !tbaa !43
  %6 = zext i8 %5 to i32
  %7 = and i32 %6, 1
  %8 = trunc i32 %7 to i8
  ret i8 %8
}

; Function Attrs: inlinehint mustprogress nounwind uwtable
define linkonce_odr noundef signext i8 @_ZNK6icu_7710UnicodeSet8isFrozenEv(ptr noundef nonnull align 8 dereferenceable(200) %0) #2 comdat align 2 {
  %2 = alloca ptr, align 8
  store ptr %0, ptr %2, align 8, !tbaa !23
  %3 = load ptr, ptr %2, align 8
  %4 = getelementptr inbounds nuw %"class.icu_77::UnicodeSet", ptr %3, i32 0, i32 6
  %5 = load ptr, ptr %4, align 8, !tbaa !44
  %6 = icmp ne ptr %5, null
  br i1 %6, label %11, label %7

7:                                                ; preds = %1
  %8 = getelementptr inbounds nuw %"class.icu_77::UnicodeSet", ptr %3, i32 0, i32 14
  %9 = load ptr, ptr %8, align 8, !tbaa !50
  %10 = icmp ne ptr %9, null
  br label %11

11:                                               ; preds = %7, %1
  %12 = phi i1 [ true, %1 ], [ %10, %7 ]
  %13 = zext i1 %12 to i8
  ret i8 %13
}

; Function Attrs: mustprogress uwtable
define noundef nonnull align 8 dereferenceable(200) ptr @_ZN6icu_7710UnicodeSet9closeOverEi(ptr noundef nonnull align 8 dereferenceable(200) %0, i32 noundef %1) #1 align 2 {
  %3 = alloca ptr, align 8
  %4 = alloca ptr, align 8
  %5 = alloca i32, align 4
  store ptr %0, ptr %4, align 8, !tbaa !23
  store i32 %1, ptr %5, align 4, !tbaa !14
  %6 = load ptr, ptr %4, align 8
  %7 = call noundef signext i8 @_ZNK6icu_7710UnicodeSet8isFrozenEv(ptr noundef nonnull align 8 dereferenceable(200) %6)
  %8 = icmp ne i8 %7, 0
  br i1 %8, label %12, label %9

9:                                                ; preds = %2
  %10 = call noundef signext i8 @_ZNK6icu_7710UnicodeSet7isBogusEv(ptr noundef nonnull align 8 dereferenceable(200) %6)
  %11 = icmp ne i8 %10, 0
  br i1 %11, label %12, label %13

12:                                               ; preds = %9, %2
  store ptr %6, ptr %3, align 8
  br label %21

13:                                               ; preds = %9
  %14 = load i32, ptr %5, align 4, !tbaa !14
  %15 = and i32 %14, 6
  switch i32 %15, label %19 [
    i32 0, label %20
    i32 2, label %16
    i32 4, label %17
    i32 6, label %18
  ]

16:                                               ; preds = %13
  call void @_ZN6icu_7710UnicodeSet24closeOverCaseInsensitiveEb(ptr noundef nonnull align 8 dereferenceable(200) %6, i1 noundef zeroext false)
  br label %20

17:                                               ; preds = %13
  call void @_ZN6icu_7710UnicodeSet24closeOverAddCaseMappingsEv(ptr noundef nonnull align 8 dereferenceable(200) %6)
  br label %20

18:                                               ; preds = %13
  call void @_ZN6icu_7710UnicodeSet24closeOverCaseInsensitiveEb(ptr noundef nonnull align 8 dereferenceable(200) %6, i1 noundef zeroext true)
  br label %20

19:                                               ; preds = %13
  br label %20

20:                                               ; preds = %19, %18, %17, %16, %13
  store ptr %6, ptr %3, align 8
  br label %21

21:                                               ; preds = %20, %12
  %22 = load ptr, ptr %3, align 8
  ret ptr %22
}