; Function Attrs: mustprogress uwtable
define noundef nonnull align 8 dereferenceable(200) ptr @_ZN6icu_7710UnicodeSet9closeOverEi(ptr noundef nonnull returned align 8 dereferenceable(200) %0, i32 noundef %1) #1 align 2 {
  %3 = getelementptr inbounds nuw i8, ptr %0, i64 40
  %4 = load ptr, ptr %3, align 8, !tbaa !37
  %.not.i = icmp eq ptr %4, null
  %5 = getelementptr inbounds nuw i8, ptr %0, i64 88
  %6 = load ptr, ptr %5, align 8
  %7 = icmp eq ptr %6, null
  %narrow.i.not = select i1 %.not.i, i1 %7, i1 false
  br i1 %narrow.i.not, label %8, label %17

8:                                                ; preds = %2
  %9 = getelementptr inbounds nuw i8, ptr %0, i64 32
  %10 = load i8, ptr %9, align 8, !tbaa !30
  %11 = and i8 %10, 1
  %.not2 = icmp eq i8 %11, 0
  br i1 %.not2, label %12, label %17

12:                                               ; preds = %8
  %13 = and i32 %1, 6
  switch i32 %13, label %.unreachabledefault [
    i32 0, label %17
    i32 2, label %14
    i32 4, label %15
    i32 6, label %16
  ]

14:                                               ; preds = %12
  tail call void @_ZN6icu_7710UnicodeSet24closeOverCaseInsensitiveEb(ptr noundef nonnull align 8 dereferenceable(200) %0, i1 noundef zeroext false)
  br label %17

15:                                               ; preds = %12
  tail call void @_ZN6icu_7710UnicodeSet24closeOverAddCaseMappingsEv(ptr noundef nonnull align 8 dereferenceable(200) %0)
  br label %17

16:                                               ; preds = %12
  tail call void @_ZN6icu_7710UnicodeSet24closeOverCaseInsensitiveEb(ptr noundef nonnull align 8 dereferenceable(200) %0, i1 noundef zeroext true)
  br label %17

.unreachabledefault:                              ; preds = %12
  unreachable

17:                                               ; preds = %12, %14, %15, %16, %2, %8
  ret ptr %0
}